target datalayout = "e-m:e-p270:32:32-p271:32:32-p272:64:64-i64:64-i128:128-f80:128-n8:16:32:64-S128"
target triple = "x86_64-pc-linux-gnu"

%struct._object = type { %union.anon, ptr }
%union.anon = type { i64 }
%struct.SHA3object = type { %struct._object, i8, %struct.PyMutex, ptr }
%struct.PyMutex = type { i8 }

; Function Attrs: nounwind uwtable
define internal ptr @SHA3_get_digest_size(ptr noundef %0, ptr noundef %1) #0 {
  %3 = alloca ptr, align 8
  %4 = alloca ptr, align 8
  %5 = alloca ptr, align 8
  %6 = alloca ptr, align 8
  %7 = alloca i32, align 4
  store ptr %0, ptr %4, align 8, !tbaa !3
  store ptr %1, ptr %5, align 8, !tbaa !8
  call void @llvm.lifetime.start.p0(i64 8, ptr %6) #7
  %8 = load ptr, ptr %4, align 8, !tbaa !3
  store ptr %8, ptr %6, align 8, !tbaa !8
  %9 = load ptr, ptr %6, align 8, !tbaa !8
  %10 = getelementptr inbounds nuw %struct.SHA3object, ptr %9, i32 0, i32 3
  %11 = load ptr, ptr %10, align 8, !tbaa !22
  %12 = call zeroext i1 @python_hashlib_Hacl_Hash_SHA3_is_shake(ptr noundef %11)
  br i1 %12, label %13, label %15

13:                                               ; preds = %2
  %14 = call ptr @PyLong_FromLong(i64 noundef 0)
  store ptr %14, ptr %3, align 8
  store i32 1, ptr %7, align 4
  br label %22

15:                                               ; preds = %2
  %16 = load ptr, ptr %6, align 8, !tbaa !8
  %17 = getelementptr inbounds nuw %struct.SHA3object, ptr %16, i32 0, i32 3
  %18 = load ptr, ptr %17, align 8, !tbaa !22
  %19 = call i32 @python_hashlib_Hacl_Hash_SHA3_hash_len(ptr noundef %18)
  %20 = zext i32 %19 to i64
  %21 = call ptr @PyLong_FromLong(i64 noundef %20)
  store ptr %21, ptr %3, align 8
  store i32 1, ptr %7, align 4
  br label %22

22:                                               ; preds = %15, %13
  call void @llvm.lifetime.end.p0(i64 8, ptr %6) #7
  %23 = load ptr, ptr %3, align 8
  ret ptr %23
}