; Function Attrs: nounwind uwtable
define internal ptr @SHA3_get_digest_size(ptr noundef readonly captures(none) %0, ptr readnone captures(none) %1) #0 {
  %3 = getelementptr inbounds nuw i8, ptr %0, i64 24
  %4 = load ptr, ptr %3, align 8, !tbaa !16
  %5 = tail call zeroext i1 @python_hashlib_Hacl_Hash_SHA3_is_shake(ptr noundef %4) #4
  br i1 %5, label %10, label %6

6:                                                ; preds = %2
  %7 = load ptr, ptr %3, align 8, !tbaa !16
  %8 = tail call i32 @python_hashlib_Hacl_Hash_SHA3_hash_len(ptr noundef %7) #4
  %9 = zext i32 %8 to i64
  br label %10

10:                                               ; preds = %2, %6
  %.sink = phi i64 [ %9, %6 ], [ 0, %2 ]
  %11 = tail call ptr @PyLong_FromLong(i64 noundef %.sink) #4
  ret ptr %11
}